; Function Attrs: mustprogress uwtable
define hidden void @_ZN4cvc58internal6theory11quantifiers12TermRegistry10finishInitEPNS2_15FirstOrderModelEPNS2_27QuantifiersInferenceManagerE(ptr nocapture noundef nonnull align 8 dereferenceable(208) %this, ptr noundef %fm, ptr noundef %qim) local_unnamed_addr #3 align 2 {
entry:
  %d_qmodel = getelementptr inbounds i8, ptr %this, i64 200
  store ptr %fm, ptr %d_qmodel, align 8
  %d_termDb = getelementptr inbounds i8, ptr %this, i64 144
  %0 = load ptr, ptr %d_termDb, align 8
  tail call void @_ZN4cvc58internal6theory11quantifiers6TermDb10finishInitEPNS2_27QuantifiersInferenceManagerE(ptr noundef nonnull align 8 dereferenceable(1072) %0, ptr noundef %qim)
  %d_sygusTdb = getelementptr inbounds i8, ptr %this, i64 160
  %1 = load ptr, ptr %d_sygusTdb, align 8
  %tobool.not = icmp eq ptr %1, null
  br i1 %tobool.not, label %if.end, label %if.then

if.then:                                          ; preds = %entry
  tail call void @_ZN4cvc58internal6theory11quantifiers11TermDbSygus10finishInitEPNS2_27QuantifiersInferenceManagerE(ptr noundef nonnull align 8 dereferenceable(1040) %1, ptr noundef %qim)
  br label %if.end

if.end:                                           ; preds = %if.then, %entry
  ret void
}